target datalayout = "e-m:e-p270:32:32-p271:32:32-p272:64:64-i64:64-i128:128-f80:128-n8:16:32:64-S128"
target triple = "x86_64-pc-linux-gnu"

%struct.bio_st = type { ptr, ptr, ptr, i32, i32, i32, i32, i32, i32, ptr, ptr, i64, i64 }
%struct.bio_bio_st = type { ptr, i32, i64, i64, i64, ptr, i8, i8, i8, i64 }

@.str = private unnamed_addr constant [121 x i8] c"generated/home/dtcxzyw/WorkSpace/Projects/compilers/llvm-opt-benchmark/bench/libquic/libquic/boringssl/crypto/bio/pair.c\00", align 1

; Function Attrs: nounwind uwtable
define internal i32 @bio_write(ptr noundef %0, ptr noundef %1, i32 noundef %2) #0 {
  %4 = alloca i32, align 4
  %5 = alloca ptr, align 8
  %6 = alloca ptr, align 8
  %7 = alloca i32, align 4
  %8 = alloca i64, align 8
  %9 = alloca i64, align 8
  %10 = alloca ptr, align 8
  %11 = alloca i32, align 4
  %12 = alloca i64, align 8
  %13 = alloca i64, align 8
  store ptr %0, ptr %5, align 8, !tbaa !6
  store ptr %1, ptr %6, align 8, !tbaa !33
  store i32 %2, ptr %7, align 4, !tbaa !40
  call void @llvm.lifetime.start.p0(i64 8, ptr %8) #8
  %14 = load i32, ptr %7, align 4, !tbaa !40
  %15 = sext i32 %14 to i64
  store i64 %15, ptr %8, align 8, !tbaa !15
  call void @llvm.lifetime.start.p0(i64 8, ptr %9) #8
  call void @llvm.lifetime.start.p0(i64 8, ptr %10) #8
  %16 = load ptr, ptr %5, align 8, !tbaa !6
  call void @BIO_clear_retry_flags(ptr noundef %16)
  %17 = load ptr, ptr %5, align 8, !tbaa !6
  %18 = getelementptr inbounds nuw %struct.bio_st, ptr %17, i32 0, i32 3
  %19 = load i32, ptr %18, align 8, !tbaa !17
  %20 = icmp ne i32 %19, 0
  br i1 %20, label %21, label %27

21:                                               ; preds = %3
  %22 = load ptr, ptr %6, align 8, !tbaa !33
  %23 = icmp eq ptr %22, null
  br i1 %23, label %27, label %24

24:                                               ; preds = %21
  %25 = load i64, ptr %8, align 8, !tbaa !15
  %26 = icmp eq i64 %25, 0
  br i1 %26, label %27, label %28

27:                                               ; preds = %24, %21, %3
  store i32 0, ptr %4, align 4
  store i32 1, ptr %11, align 4
  br label %135

28:                                               ; preds = %24
  %29 = load ptr, ptr %5, align 8, !tbaa !6
  %30 = getelementptr inbounds nuw %struct.bio_st, ptr %29, i32 0, i32 9
  %31 = load ptr, ptr %30, align 8, !tbaa !22
  store ptr %31, ptr %10, align 8, !tbaa !23
  %32 = load ptr, ptr %10, align 8, !tbaa !23
  %33 = getelementptr inbounds nuw %struct.bio_bio_st, ptr %32, i32 0, i32 8
  %34 = load i8, ptr %33, align 2, !tbaa !34
  %35 = icmp ne i8 %34, 0
  br i1 %35, label %36, label %37

36:                                               ; preds = %28
  store i32 0, ptr %4, align 4
  store i32 1, ptr %11, align 4
  br label %135

37:                                               ; preds = %28
  %38 = load ptr, ptr %10, align 8, !tbaa !23
  %39 = getelementptr inbounds nuw %struct.bio_bio_st, ptr %38, i32 0, i32 9
  store i64 0, ptr %39, align 8, !tbaa !28
  %40 = load ptr, ptr %10, align 8, !tbaa !23
  %41 = getelementptr inbounds nuw %struct.bio_bio_st, ptr %40, i32 0, i32 1
  %42 = load i32, ptr %41, align 8, !tbaa !36
  %43 = icmp ne i32 %42, 0
  br i1 %43, label %44, label %45

44:                                               ; preds = %37
  call void @ERR_put_error(i32 noundef 17, i32 noundef 0, i32 noundef 101, ptr noundef @.str, i32 noundef 514)
  store i32 -1, ptr %4, align 4
  store i32 1, ptr %11, align 4
  br label %135

45:                                               ; preds = %37
  %46 = load ptr, ptr %10, align 8, !tbaa !23
  %47 = getelementptr inbounds nuw %struct.bio_bio_st, ptr %46, i32 0, i32 2
  %48 = load i64, ptr %47, align 8, !tbaa !29
  %49 = load ptr, ptr %10, align 8, !tbaa !23
  %50 = getelementptr inbounds nuw %struct.bio_bio_st, ptr %49, i32 0, i32 4
  %51 = load i64, ptr %50, align 8, !tbaa !30
  %52 = icmp eq i64 %48, %51
  br i1 %52, label %53, label %55

53:                                               ; preds = %45
  %54 = load ptr, ptr %5, align 8, !tbaa !6
  call void @BIO_set_retry_write(ptr noundef %54)
  store i32 -1, ptr %4, align 4
  store i32 1, ptr %11, align 4
  br label %135

55:                                               ; preds = %45
  %56 = load i64, ptr %8, align 8, !tbaa !15
  %57 = load ptr, ptr %10, align 8, !tbaa !23
  %58 = getelementptr inbounds nuw %struct.bio_bio_st, ptr %57, i32 0, i32 4
  %59 = load i64, ptr %58, align 8, !tbaa !30
  %60 = load ptr, ptr %10, align 8, !tbaa !23
  %61 = getelementptr inbounds nuw %struct.bio_bio_st, ptr %60, i32 0, i32 2
  %62 = load i64, ptr %61, align 8, !tbaa !29
  %63 = sub i64 %59, %62
  %64 = icmp ugt i64 %56, %63
  br i1 %64, label %65, label %73

65:                                               ; preds = %55
  %66 = load ptr, ptr %10, align 8, !tbaa !23
  %67 = getelementptr inbounds nuw %struct.bio_bio_st, ptr %66, i32 0, i32 4
  %68 = load i64, ptr %67, align 8, !tbaa !30
  %69 = load ptr, ptr %10, align 8, !tbaa !23
  %70 = getelementptr inbounds nuw %struct.bio_bio_st, ptr %69, i32 0, i32 2
  %71 = load i64, ptr %70, align 8, !tbaa !29
  %72 = sub i64 %68, %71
  store i64 %72, ptr %8, align 8, !tbaa !15
  br label %73

73:                                               ; preds = %65, %55
  %74 = load i64, ptr %8, align 8, !tbaa !15
  store i64 %74, ptr %9, align 8, !tbaa !15
  br label %75

75:                                               ; preds = %129, %73
  call void @llvm.lifetime.start.p0(i64 8, ptr %12) #8
  call void @llvm.lifetime.start.p0(i64 8, ptr %13) #8
  %76 = load ptr, ptr %10, align 8, !tbaa !23
  %77 = getelementptr inbounds nuw %struct.bio_bio_st, ptr %76, i32 0, i32 3
  %78 = load i64, ptr %77, align 8, !tbaa !31
  %79 = load ptr, ptr %10, align 8, !tbaa !23
  %80 = getelementptr inbounds nuw %struct.bio_bio_st, ptr %79, i32 0, i32 2
  %81 = load i64, ptr %80, align 8, !tbaa !29
  %82 = add i64 %78, %81
  store i64 %82, ptr %12, align 8, !tbaa !15
  %83 = load i64, ptr %12, align 8, !tbaa !15
  %84 = load ptr, ptr %10, align 8, !tbaa !23
  %85 = getelementptr inbounds nuw %struct.bio_bio_st, ptr %84, i32 0, i32 4
  %86 = load i64, ptr %85, align 8, !tbaa !30
  %87 = icmp uge i64 %83, %86
  br i1 %87, label %88, label %94

88:                                               ; preds = %75
  %89 = load ptr, ptr %10, align 8, !tbaa !23
  %90 = getelementptr inbounds nuw %struct.bio_bio_st, ptr %89, i32 0, i32 4
  %91 = load i64, ptr %90, align 8, !tbaa !30
  %92 = load i64, ptr %12, align 8, !tbaa !15
  %93 = sub i64 %92, %91
  store i64 %93, ptr %12, align 8, !tbaa !15
  br label %94

94:                                               ; preds = %88, %75
  %95 = load i64, ptr %12, align 8, !tbaa !15
  %96 = load i64, ptr %9, align 8, !tbaa !15
  %97 = add i64 %95, %96
  %98 = load ptr, ptr %10, align 8, !tbaa !23
  %99 = getelementptr inbounds nuw %struct.bio_bio_st, ptr %98, i32 0, i32 4
  %100 = load i64, ptr %99, align 8, !tbaa !30
  %101 = icmp ule i64 %97, %100
  br i1 %101, label %102, label %104

102:                                              ; preds = %94
  %103 = load i64, ptr %9, align 8, !tbaa !15
  store i64 %103, ptr %13, align 8, !tbaa !15
  br label %110

104:                                              ; preds = %94
  %105 = load ptr, ptr %10, align 8, !tbaa !23
  %106 = getelementptr inbounds nuw %struct.bio_bio_st, ptr %105, i32 0, i32 4
  %107 = load i64, ptr %106, align 8, !tbaa !30
  %108 = load i64, ptr %12, align 8, !tbaa !15
  %109 = sub i64 %107, %108
  store i64 %109, ptr %13, align 8, !tbaa !15
  br label %110

110:                                              ; preds = %104, %102
  %111 = load ptr, ptr %10, align 8, !tbaa !23
  %112 = getelementptr inbounds nuw %struct.bio_bio_st, ptr %111, i32 0, i32 5
  %113 = load ptr, ptr %112, align 8, !tbaa !32
  %114 = load i64, ptr %12, align 8, !tbaa !15
  %115 = getelementptr inbounds nuw i8, ptr %113, i64 %114
  %116 = load ptr, ptr %6, align 8, !tbaa !33
  %117 = load i64, ptr %13, align 8, !tbaa !15
  call void @llvm.memcpy.p0.p0.i64(ptr align 1 %115, ptr align 1 %116, i64 %117, i1 false)
  %118 = load i64, ptr %13, align 8, !tbaa !15
  %119 = load ptr, ptr %10, align 8, !tbaa !23
  %120 = getelementptr inbounds nuw %struct.bio_bio_st, ptr %119, i32 0, i32 2
  %121 = load i64, ptr %120, align 8, !tbaa !29
  %122 = add i64 %121, %118
  store i64 %122, ptr %120, align 8, !tbaa !29
  %123 = load i64, ptr %13, align 8, !tbaa !15
  %124 = load i64, ptr %9, align 8, !tbaa !15
  %125 = sub i64 %124, %123
  store i64 %125, ptr %9, align 8, !tbaa !15
  %126 = load i64, ptr %13, align 8, !tbaa !15
  %127 = load ptr, ptr %6, align 8, !tbaa !33
  %128 = getelementptr inbounds nuw i8, ptr %127, i64 %126
  store ptr %128, ptr %6, align 8, !tbaa !33
  call void @llvm.lifetime.end.p0(i64 8, ptr %13) #8
  call void @llvm.lifetime.end.p0(i64 8, ptr %12) #8
  br label %129

129:                                              ; preds = %110
  %130 = load i64, ptr %9, align 8, !tbaa !15
  %131 = icmp ne i64 %130, 0
  br i1 %131, label %75, label %132, !llvm.loop !42

132:                                              ; preds = %129
  %133 = load i64, ptr %8, align 8, !tbaa !15
  %134 = trunc i64 %133 to i32
  store i32 %134, ptr %4, align 4
  store i32 1, ptr %11, align 4
  br label %135

135:                                              ; preds = %132, %53, %44, %36, %27
  call void @llvm.lifetime.end.p0(i64 8, ptr %10) #8
  call void @llvm.lifetime.end.p0(i64 8, ptr %9) #8
  call void @llvm.lifetime.end.p0(i64 8, ptr %8) #8
  %136 = load i32, ptr %4, align 4
  ret i32 %136
}