; Function Attrs: nounwind uwtable
define internal i32 @bio_write(ptr noundef %0, ptr noundef readonly captures(address_is_null) %1, i32 noundef %2) #0 {
  %4 = sext i32 %2 to i64
  tail call void @BIO_clear_retry_flags(ptr noundef %0) #12
  %5 = getelementptr inbounds nuw i8, ptr %0, i64 24
  %6 = load i32, ptr %5, align 8, !tbaa !10
  %7 = icmp eq i32 %6, 0
  %8 = icmp eq ptr %1, null
  %or.cond = or i1 %8, %7
  %9 = icmp eq i32 %2, 0
  %or.cond3 = or i1 %9, %or.cond
  br i1 %or.cond3, label %47, label %10

10:                                               ; preds = %3
  %11 = getelementptr inbounds nuw i8, ptr %0, i64 48
  %12 = load ptr, ptr %11, align 8, !tbaa !17
  %13 = getelementptr inbounds nuw i8, ptr %12, i64 50
  %14 = load i8, ptr %13, align 2, !tbaa !27
  %.not = icmp eq i8 %14, 0
  br i1 %.not, label %15, label %47

15:                                               ; preds = %10
  %16 = getelementptr inbounds nuw i8, ptr %12, i64 56
  store i64 0, ptr %16, align 8, !tbaa !21
  %17 = getelementptr inbounds nuw i8, ptr %12, i64 8
  %18 = load i32, ptr %17, align 8, !tbaa !29
  %.not59 = icmp eq i32 %18, 0
  br i1 %.not59, label %20, label %19

19:                                               ; preds = %15
  tail call void @ERR_put_error(i32 noundef 17, i32 noundef 0, i32 noundef 101, ptr noundef nonnull @.str, i32 noundef 514) #12
  br label %47

20:                                               ; preds = %15
  %21 = getelementptr inbounds nuw i8, ptr %12, i64 16
  %22 = load i64, ptr %21, align 8, !tbaa !22
  %23 = getelementptr inbounds nuw i8, ptr %12, i64 32
  %24 = load i64, ptr %23, align 8, !tbaa !23
  %25 = icmp eq i64 %22, %24
  br i1 %25, label %26, label %27

26:                                               ; preds = %20
  tail call void @BIO_set_retry_write(ptr noundef nonnull %0) #12
  br label %47

27:                                               ; preds = %20
  %28 = sub i64 %24, %22
  %spec.select = tail call i64 @llvm.umin.i64(i64 %28, i64 %4)
  %29 = getelementptr inbounds nuw i8, ptr %12, i64 24
  %30 = getelementptr inbounds nuw i8, ptr %12, i64 40
  br label %31

31:                                               ; preds = %31, %27
  %32 = phi i64 [ %22, %27 ], [ %42, %31 ]
  %.049 = phi ptr [ %1, %27 ], [ %44, %31 ]
  %.047 = phi i64 [ %spec.select, %27 ], [ %43, %31 ]
  %33 = load i64, ptr %29, align 8, !tbaa !24
  %34 = add i64 %32, %33
  %35 = load i64, ptr %23, align 8, !tbaa !23
  %.not60 = icmp ult i64 %34, %35
  %36 = select i1 %.not60, i64 0, i64 %35
  %spec.select63 = sub nuw i64 %34, %36
  %37 = add i64 %spec.select63, %.047
  %.not61 = icmp ugt i64 %37, %35
  %38 = sub i64 %35, %spec.select63
  %.0 = select i1 %.not61, i64 %38, i64 %.047
  %39 = load ptr, ptr %30, align 8, !tbaa !25
  %40 = getelementptr inbounds nuw i8, ptr %39, i64 %spec.select63
  tail call void @llvm.memcpy.p0.p0.i64(ptr align 1 %40, ptr align 1 %.049, i64 %.0, i1 false)
  %41 = load i64, ptr %21, align 8, !tbaa !22
  %42 = add i64 %.0, %41
  store i64 %42, ptr %21, align 8, !tbaa !22
  %43 = sub i64 %.047, %.0
  %44 = getelementptr inbounds nuw i8, ptr %.049, i64 %.0
  %.not62 = icmp eq i64 %43, 0
  br i1 %.not62, label %45, label %31, !llvm.loop !33

45:                                               ; preds = %31
  %46 = trunc i64 %spec.select to i32
  br label %47

47:                                               ; preds = %10, %3, %45, %26, %19
  %.046 = phi i32 [ -1, %19 ], [ -1, %26 ], [ %46, %45 ], [ 0, %3 ], [ 0, %10 ]
  ret i32 %.046
}